target datalayout = "e-m:e-p270:32:32-p271:32:32-p272:64:64-i64:64-i128:128-f80:128-n8:16:32:64-S128"
target triple = "x86_64-pc-linux-gnu"

%struct.IPAddressFamily_st = type { ptr, ptr }
%struct.asn1_string_st = type { i32, i32, ptr, i64 }

; Function Attrs: nounwind uwtable
define i32 @X509v3_addr_get_afi(ptr noundef %0) #0 {
  %2 = alloca i32, align 4
  %3 = alloca ptr, align 8
  store ptr %0, ptr %3, align 8, !tbaa !24
  %4 = load ptr, ptr %3, align 8, !tbaa !24
  %5 = icmp eq ptr %4, null
  br i1 %5, label %25, label %6

6:                                                ; preds = %1
  %7 = load ptr, ptr %3, align 8, !tbaa !24
  %8 = getelementptr inbounds nuw %struct.IPAddressFamily_st, ptr %7, i32 0, i32 0
  %9 = load ptr, ptr %8, align 8, !tbaa !26
  %10 = icmp eq ptr %9, null
  br i1 %10, label %25, label %11

11:                                               ; preds = %6
  %12 = load ptr, ptr %3, align 8, !tbaa !24
  %13 = getelementptr inbounds nuw %struct.IPAddressFamily_st, ptr %12, i32 0, i32 0
  %14 = load ptr, ptr %13, align 8, !tbaa !26
  %15 = getelementptr inbounds nuw %struct.asn1_string_st, ptr %14, i32 0, i32 2
  %16 = load ptr, ptr %15, align 8, !tbaa !29
  %17 = icmp eq ptr %16, null
  br i1 %17, label %25, label %18

18:                                               ; preds = %11
  %19 = load ptr, ptr %3, align 8, !tbaa !24
  %20 = getelementptr inbounds nuw %struct.IPAddressFamily_st, ptr %19, i32 0, i32 0
  %21 = load ptr, ptr %20, align 8, !tbaa !26
  %22 = getelementptr inbounds nuw %struct.asn1_string_st, ptr %21, i32 0, i32 0
  %23 = load i32, ptr %22, align 8, !tbaa !33
  %24 = icmp slt i32 %23, 2
  br i1 %24, label %25, label %26

25:                                               ; preds = %18, %11, %6, %1
  store i32 0, ptr %2, align 4
  br label %45

26:                                               ; preds = %18
  %27 = load ptr, ptr %3, align 8, !tbaa !24
  %28 = getelementptr inbounds nuw %struct.IPAddressFamily_st, ptr %27, i32 0, i32 0
  %29 = load ptr, ptr %28, align 8, !tbaa !26
  %30 = getelementptr inbounds nuw %struct.asn1_string_st, ptr %29, i32 0, i32 2
  %31 = load ptr, ptr %30, align 8, !tbaa !29
  %32 = getelementptr inbounds i8, ptr %31, i64 0
  %33 = load i8, ptr %32, align 1, !tbaa !34
  %34 = zext i8 %33 to i32
  %35 = shl i32 %34, 8
  %36 = load ptr, ptr %3, align 8, !tbaa !24
  %37 = getelementptr inbounds nuw %struct.IPAddressFamily_st, ptr %36, i32 0, i32 0
  %38 = load ptr, ptr %37, align 8, !tbaa !26
  %39 = getelementptr inbounds nuw %struct.asn1_string_st, ptr %38, i32 0, i32 2
  %40 = load ptr, ptr %39, align 8, !tbaa !29
  %41 = getelementptr inbounds i8, ptr %40, i64 1
  %42 = load i8, ptr %41, align 1, !tbaa !34
  %43 = zext i8 %42 to i32
  %44 = or i32 %35, %43
  store i32 %44, ptr %2, align 4
  br label %45

45:                                               ; preds = %26, %25
  %46 = load i32, ptr %2, align 4
  ret i32 %46
}