; Function Attrs: mustprogress nofree norecurse nosync nounwind willreturn memory(read, inaccessiblemem: none) uwtable
define range(i32 0, 65536) i32 @X509v3_addr_get_afi(ptr noundef readonly captures(address_is_null) %0) local_unnamed_addr #3 {
  %2 = icmp eq ptr %0, null
  br i1 %2, label %21, label %3

3:                                                ; preds = %1
  %4 = load ptr, ptr %0, align 8, !tbaa !3
  %5 = icmp eq ptr %4, null
  br i1 %5, label %21, label %6

6:                                                ; preds = %3
  %7 = getelementptr inbounds nuw i8, ptr %4, i64 8
  %8 = load ptr, ptr %7, align 8, !tbaa !10
  %9 = icmp eq ptr %8, null
  br i1 %9, label %21, label %10

10:                                               ; preds = %6
  %11 = load i32, ptr %4, align 8, !tbaa !15
  %12 = icmp slt i32 %11, 2
  br i1 %12, label %21, label %13

13:                                               ; preds = %10
  %14 = load i8, ptr %8, align 1, !tbaa !16
  %15 = zext i8 %14 to i32
  %16 = shl nuw nsw i32 %15, 8
  %17 = getelementptr inbounds nuw i8, ptr %8, i64 1
  %18 = load i8, ptr %17, align 1, !tbaa !16
  %19 = zext i8 %18 to i32
  %20 = or disjoint i32 %16, %19
  br label %21

21:                                               ; preds = %1, %3, %6, %10, %13
  %.0 = phi i32 [ %20, %13 ], [ 0, %10 ], [ 0, %6 ], [ 0, %3 ], [ 0, %1 ]
  ret i32 %.0
}